; Function Attrs: mustprogress nofree norecurse nosync nounwind willreturn memory(read, inaccessiblemem: none) uwtable
define hidden noundef i64 @_ZNK4cvc58internal4prop9LearnedDb21getNumLearnedLiteralsENS_5modes14LearnedLitTypeE(ptr nocapture noundef nonnull readonly align 8 dereferenceable(336) %this, i32 noundef %ltype) local_unnamed_addr #6 align 2 {
entry:
  switch i32 %ltype, label %sw.epilog.i [
    i32 0, label %_ZNK4cvc58internal4prop9LearnedDb13getLiteralSetENS_5modes14LearnedLitTypeE.exit
    i32 1, label %sw.bb2.i
    i32 2, label %sw.bb3.i
    i32 3, label %sw.bb4.i
    i32 4, label %sw.bb5.i
  ]

sw.bb2.i:                                         ; preds = %entry
  %d_preprocessLits.i = getelementptr inbounds i8, ptr %this, i64 56
  br label %_ZNK4cvc58internal4prop9LearnedDb13getLiteralSetENS_5modes14LearnedLitTypeE.exit

sw.bb3.i:                                         ; preds = %entry
  %d_inputLits.i = getelementptr inbounds i8, ptr %this, i64 112
  br label %_ZNK4cvc58internal4prop9LearnedDb13getLiteralSetENS_5modes14LearnedLitTypeE.exit

sw.bb4.i:                                         ; preds = %entry
  %d_solvableLits.i = getelementptr inbounds i8, ptr %this, i64 168
  br label %_ZNK4cvc58internal4prop9LearnedDb13getLiteralSetENS_5modes14LearnedLitTypeE.exit

sw.bb5.i:                                         ; preds = %entry
  %d_cpropLits.i = getelementptr inbounds i8, ptr %this, i64 224
  br label %_ZNK4cvc58internal4prop9LearnedDb13getLiteralSetENS_5modes14LearnedLitTypeE.exit

sw.epilog.i:                                      ; preds = %entry
  %d_internalLits.i = getelementptr inbounds i8, ptr %this, i64 280
  br label %_ZNK4cvc58internal4prop9LearnedDb13getLiteralSetENS_5modes14LearnedLitTypeE.exit

_ZNK4cvc58internal4prop9LearnedDb13getLiteralSetENS_5modes14LearnedLitTypeE.exit: ; preds = %entry, %sw.bb2.i, %sw.bb3.i, %sw.bb4.i, %sw.bb5.i, %sw.epilog.i
  %retval.0.i = phi ptr [ %d_internalLits.i, %sw.epilog.i ], [ %d_cpropLits.i, %sw.bb5.i ], [ %d_solvableLits.i, %sw.bb4.i ], [ %d_inputLits.i, %sw.bb3.i ], [ %d_preprocessLits.i, %sw.bb2.i ], [ %this, %entry ]
  %d_size.i.i = getelementptr inbounds i8, ptr %retval.0.i, i64 48
  %0 = load i64, ptr %d_size.i.i, align 8
  ret i64 %0
}